target datalayout = "e-m:e-p270:32:32-p271:32:32-p272:64:64-i64:64-i128:128-f80:128-n8:16:32:64-S128"
target triple = "x86_64-pc-linux-gnu"

; Function Attrs: nounwind uwtable
define i32 @stb__MatchColorsBlock(ptr noundef %0, ptr noundef %1) #0 {
  %3 = alloca ptr, align 8
  %4 = alloca ptr, align 8
  %5 = alloca i32, align 4
  %6 = alloca i32, align 4
  %7 = alloca i32, align 4
  %8 = alloca i32, align 4
  %9 = alloca [16 x i32], align 16
  %10 = alloca [4 x i32], align 16
  %11 = alloca i32, align 4
  %12 = alloca i32, align 4
  %13 = alloca i32, align 4
  %14 = alloca i32, align 4
  %15 = alloca i32, align 4
  store ptr %0, ptr %3, align 8, !tbaa !7
  store ptr %1, ptr %4, align 8, !tbaa !7
  call void @llvm.lifetime.start.p0(i64 4, ptr %5) #4
  store i32 0, ptr %5, align 4, !tbaa !3
  call void @llvm.lifetime.start.p0(i64 4, ptr %6) #4
  %16 = load ptr, ptr %4, align 8, !tbaa !7
  %17 = getelementptr inbounds i8, ptr %16, i64 0
  %18 = load i8, ptr %17, align 1, !tbaa !12
  %19 = zext i8 %18 to i32
  %20 = load ptr, ptr %4, align 8, !tbaa !7
  %21 = getelementptr inbounds i8, ptr %20, i64 4
  %22 = load i8, ptr %21, align 1, !tbaa !12
  %23 = zext i8 %22 to i32
  %24 = sub nsw i32 %19, %23
  store i32 %24, ptr %6, align 4, !tbaa !3
  call void @llvm.lifetime.start.p0(i64 4, ptr %7) #4
  %25 = load ptr, ptr %4, align 8, !tbaa !7
  %26 = getelementptr inbounds i8, ptr %25, i64 1
  %27 = load i8, ptr %26, align 1, !tbaa !12
  %28 = zext i8 %27 to i32
  %29 = load ptr, ptr %4, align 8, !tbaa !7
  %30 = getelementptr inbounds i8, ptr %29, i64 5
  %31 = load i8, ptr %30, align 1, !tbaa !12
  %32 = zext i8 %31 to i32
  %33 = sub nsw i32 %28, %32
  store i32 %33, ptr %7, align 4, !tbaa !3
  call void @llvm.lifetime.start.p0(i64 4, ptr %8) #4
  %34 = load ptr, ptr %4, align 8, !tbaa !7
  %35 = getelementptr inbounds i8, ptr %34, i64 2
  %36 = load i8, ptr %35, align 1, !tbaa !12
  %37 = zext i8 %36 to i32
  %38 = load ptr, ptr %4, align 8, !tbaa !7
  %39 = getelementptr inbounds i8, ptr %38, i64 6
  %40 = load i8, ptr %39, align 1, !tbaa !12
  %41 = zext i8 %40 to i32
  %42 = sub nsw i32 %37, %41
  store i32 %42, ptr %8, align 4, !tbaa !3
  call void @llvm.lifetime.start.p0(i64 64, ptr %9) #4
  call void @llvm.lifetime.start.p0(i64 16, ptr %10) #4
  call void @llvm.lifetime.start.p0(i64 4, ptr %11) #4
  call void @llvm.lifetime.start.p0(i64 4, ptr %12) #4
  call void @llvm.lifetime.start.p0(i64 4, ptr %13) #4
  call void @llvm.lifetime.start.p0(i64 4, ptr %14) #4
  store i32 0, ptr %11, align 4, !tbaa !3
  br label %43

43:                                               ; preds = %82, %2
  %44 = load i32, ptr %11, align 4, !tbaa !3
  %45 = icmp slt i32 %44, 16
  br i1 %45, label %46, label %85

46:                                               ; preds = %43
  %47 = load ptr, ptr %3, align 8, !tbaa !7
  %48 = load i32, ptr %11, align 4, !tbaa !3
  %49 = mul nsw i32 %48, 4
  %50 = add nsw i32 %49, 0
  %51 = sext i32 %50 to i64
  %52 = getelementptr inbounds i8, ptr %47, i64 %51
  %53 = load i8, ptr %52, align 1, !tbaa !12
  %54 = zext i8 %53 to i32
  %55 = load i32, ptr %6, align 4, !tbaa !3
  %56 = mul nsw i32 %54, %55
  %57 = load ptr, ptr %3, align 8, !tbaa !7
  %58 = load i32, ptr %11, align 4, !tbaa !3
  %59 = mul nsw i32 %58, 4
  %60 = add nsw i32 %59, 1
  %61 = sext i32 %60 to i64
  %62 = getelementptr inbounds i8, ptr %57, i64 %61
  %63 = load i8, ptr %62, align 1, !tbaa !12
  %64 = zext i8 %63 to i32
  %65 = load i32, ptr %7, align 4, !tbaa !3
  %66 = mul nsw i32 %64, %65
  %67 = add nsw i32 %56, %66
  %68 = load ptr, ptr %3, align 8, !tbaa !7
  %69 = load i32, ptr %11, align 4, !tbaa !3
  %70 = mul nsw i32 %69, 4
  %71 = add nsw i32 %70, 2
  %72 = sext i32 %71 to i64
  %73 = getelementptr inbounds i8, ptr %68, i64 %72
  %74 = load i8, ptr %73, align 1, !tbaa !12
  %75 = zext i8 %74 to i32
  %76 = load i32, ptr %8, align 4, !tbaa !3
  %77 = mul nsw i32 %75, %76
  %78 = add nsw i32 %67, %77
  %79 = load i32, ptr %11, align 4, !tbaa !3
  %80 = sext i32 %79 to i64
  %81 = getelementptr inbounds [16 x i32], ptr %9, i64 0, i64 %80
  store i32 %78, ptr %81, align 4, !tbaa !3
  br label %82

82:                                               ; preds = %46
  %83 = load i32, ptr %11, align 4, !tbaa !3
  %84 = add nsw i32 %83, 1
  store i32 %84, ptr %11, align 4, !tbaa !3
  br label %43, !llvm.loop !13

85:                                               ; preds = %43
  store i32 0, ptr %11, align 4, !tbaa !3
  br label %86

86:                                               ; preds = %125, %85
  %87 = load i32, ptr %11, align 4, !tbaa !3
  %88 = icmp slt i32 %87, 4
  br i1 %88, label %89, label %128

89:                                               ; preds = %86
  %90 = load ptr, ptr %4, align 8, !tbaa !7
  %91 = load i32, ptr %11, align 4, !tbaa !3
  %92 = mul nsw i32 %91, 4
  %93 = add nsw i32 %92, 0
  %94 = sext i32 %93 to i64
  %95 = getelementptr inbounds i8, ptr %90, i64 %94
  %96 = load i8, ptr %95, align 1, !tbaa !12
  %97 = zext i8 %96 to i32
  %98 = load i32, ptr %6, align 4, !tbaa !3
  %99 = mul nsw i32 %97, %98
  %100 = load ptr, ptr %4, align 8, !tbaa !7
  %101 = load i32, ptr %11, align 4, !tbaa !3
  %102 = mul nsw i32 %101, 4
  %103 = add nsw i32 %102, 1
  %104 = sext i32 %103 to i64
  %105 = getelementptr inbounds i8, ptr %100, i64 %104
  %106 = load i8, ptr %105, align 1, !tbaa !12
  %107 = zext i8 %106 to i32
  %108 = load i32, ptr %7, align 4, !tbaa !3
  %109 = mul nsw i32 %107, %108
  %110 = add nsw i32 %99, %109
  %111 = load ptr, ptr %4, align 8, !tbaa !7
  %112 = load i32, ptr %11, align 4, !tbaa !3
  %113 = mul nsw i32 %112, 4
  %114 = add nsw i32 %113, 2
  %115 = sext i32 %114 to i64
  %116 = getelementptr inbounds i8, ptr %111, i64 %115
  %117 = load i8, ptr %116, align 1, !tbaa !12
  %118 = zext i8 %117 to i32
  %119 = load i32, ptr %8, align 4, !tbaa !3
  %120 = mul nsw i32 %118, %119
  %121 = add nsw i32 %110, %120
  %122 = load i32, ptr %11, align 4, !tbaa !3
  %123 = sext i32 %122 to i64
  %124 = getelementptr inbounds [4 x i32], ptr %10, i64 0, i64 %123
  store i32 %121, ptr %124, align 4, !tbaa !3
  br label %125

125:                                              ; preds = %89
  %126 = load i32, ptr %11, align 4, !tbaa !3
  %127 = add nsw i32 %126, 1
  store i32 %127, ptr %11, align 4, !tbaa !3
  br label %86, !llvm.loop !15

128:                                              ; preds = %86
  %129 = getelementptr inbounds [4 x i32], ptr %10, i64 0, i64 1
  %130 = load i32, ptr %129, align 4, !tbaa !3
  %131 = getelementptr inbounds [4 x i32], ptr %10, i64 0, i64 3
  %132 = load i32, ptr %131, align 4, !tbaa !3
  %133 = add nsw i32 %130, %132
  store i32 %133, ptr %12, align 4, !tbaa !3
  %134 = getelementptr inbounds [4 x i32], ptr %10, i64 0, i64 3
  %135 = load i32, ptr %134, align 4, !tbaa !3
  %136 = getelementptr inbounds [4 x i32], ptr %10, i64 0, i64 2
  %137 = load i32, ptr %136, align 8, !tbaa !3
  %138 = add nsw i32 %135, %137
  store i32 %138, ptr %13, align 4, !tbaa !3
  %139 = getelementptr inbounds [4 x i32], ptr %10, i64 0, i64 2
  %140 = load i32, ptr %139, align 8, !tbaa !3
  %141 = getelementptr inbounds [4 x i32], ptr %10, i64 0, i64 0
  %142 = load i32, ptr %141, align 16, !tbaa !3
  %143 = add nsw i32 %140, %142
  store i32 %143, ptr %14, align 4, !tbaa !3
  store i32 15, ptr %11, align 4, !tbaa !3
  br label %144

144:                                              ; preds = %173, %128
  %145 = load i32, ptr %11, align 4, !tbaa !3
  %146 = icmp sge i32 %145, 0
  br i1 %146, label %147, label %176

147:                                              ; preds = %144
  call void @llvm.lifetime.start.p0(i64 4, ptr %15) #4
  %148 = load i32, ptr %11, align 4, !tbaa !3
  %149 = sext i32 %148 to i64
  %150 = getelementptr inbounds [16 x i32], ptr %9, i64 0, i64 %149
  %151 = load i32, ptr %150, align 4, !tbaa !3
  %152 = mul nsw i32 %151, 2
  store i32 %152, ptr %15, align 4, !tbaa !3
  %153 = load i32, ptr %5, align 4, !tbaa !3
  %154 = shl i32 %153, 2
  store i32 %154, ptr %5, align 4, !tbaa !3
  %155 = load i32, ptr %15, align 4, !tbaa !3
  %156 = load i32, ptr %13, align 4, !tbaa !3
  %157 = icmp slt i32 %155, %156
  br i1 %157, label %158, label %165

158:                                              ; preds = %147
  %159 = load i32, ptr %15, align 4, !tbaa !3
  %160 = load i32, ptr %12, align 4, !tbaa !3
  %161 = icmp slt i32 %159, %160
  %162 = select i1 %161, i32 1, i32 3
  %163 = load i32, ptr %5, align 4, !tbaa !3
  %164 = or i32 %163, %162
  store i32 %164, ptr %5, align 4, !tbaa !3
  br label %172

165:                                              ; preds = %147
  %166 = load i32, ptr %15, align 4, !tbaa !3
  %167 = load i32, ptr %14, align 4, !tbaa !3
  %168 = icmp slt i32 %166, %167
  %169 = select i1 %168, i32 2, i32 0
  %170 = load i32, ptr %5, align 4, !tbaa !3
  %171 = or i32 %170, %169
  store i32 %171, ptr %5, align 4, !tbaa !3
  br label %172

172:                                              ; preds = %165, %158
  call void @llvm.lifetime.end.p0(i64 4, ptr %15) #4
  br label %173

173:                                              ; preds = %172
  %174 = load i32, ptr %11, align 4, !tbaa !3
  %175 = add nsw i32 %174, -1
  store i32 %175, ptr %11, align 4, !tbaa !3
  br label %144, !llvm.loop !16

176:                                              ; preds = %144
  %177 = load i32, ptr %5, align 4, !tbaa !3
  call void @llvm.lifetime.end.p0(i64 4, ptr %14) #4
  call void @llvm.lifetime.end.p0(i64 4, ptr %13) #4
  call void @llvm.lifetime.end.p0(i64 4, ptr %12) #4
  call void @llvm.lifetime.end.p0(i64 4, ptr %11) #4
  call void @llvm.lifetime.end.p0(i64 16, ptr %10) #4
  call void @llvm.lifetime.end.p0(i64 64, ptr %9) #4
  call void @llvm.lifetime.end.p0(i64 4, ptr %8) #4
  call void @llvm.lifetime.end.p0(i64 4, ptr %7) #4
  call void @llvm.lifetime.end.p0(i64 4, ptr %6) #4
  call void @llvm.lifetime.end.p0(i64 4, ptr %5) #4
  ret i32 %177
}