; Function Attrs: nofree norecurse nosync nounwind memory(argmem: read) uwtable
define i32 @stb__MatchColorsBlock(ptr noundef readonly captures(none) %0, ptr noundef readonly captures(none) %1) local_unnamed_addr #4 {
  %3 = alloca [16 x i32], align 16
  %4 = alloca [4 x i32], align 16
  %5 = load i8, ptr %1, align 1, !tbaa !3
  %6 = zext i8 %5 to i32
  %7 = getelementptr inbounds nuw i8, ptr %1, i64 4
  %8 = load i8, ptr %7, align 1, !tbaa !3
  %9 = zext i8 %8 to i32
  %10 = sub nsw i32 %6, %9
  %11 = getelementptr inbounds nuw i8, ptr %1, i64 1
  %12 = load i8, ptr %11, align 1, !tbaa !3
  %13 = zext i8 %12 to i32
  %14 = getelementptr inbounds nuw i8, ptr %1, i64 5
  %15 = load i8, ptr %14, align 1, !tbaa !3
  %16 = zext i8 %15 to i32
  %17 = sub nsw i32 %13, %16
  %18 = getelementptr inbounds nuw i8, ptr %1, i64 2
  %19 = load i8, ptr %18, align 1, !tbaa !3
  %20 = zext i8 %19 to i32
  %21 = getelementptr inbounds nuw i8, ptr %1, i64 6
  %22 = load i8, ptr %21, align 1, !tbaa !3
  %23 = zext i8 %22 to i32
  %24 = sub nsw i32 %20, %23
  call void @llvm.lifetime.start.p0(i64 64, ptr nonnull %3) #10
  call void @llvm.lifetime.start.p0(i64 16, ptr nonnull %4) #10
  br label %25

25:                                               ; preds = %2, %25
  %indvars.iv = phi i64 [ 0, %2 ], [ %indvars.iv.next, %25 ]
  %26 = shl nuw nsw i64 %indvars.iv, 2
  %27 = getelementptr inbounds nuw i8, ptr %0, i64 %26
  %28 = load i8, ptr %27, align 1, !tbaa !3
  %29 = zext i8 %28 to i32
  %30 = mul nsw i32 %10, %29
  %31 = or disjoint i64 %26, 1
  %32 = getelementptr inbounds nuw i8, ptr %0, i64 %31
  %33 = load i8, ptr %32, align 1, !tbaa !3
  %34 = zext i8 %33 to i32
  %35 = mul nsw i32 %17, %34
  %36 = add nsw i32 %35, %30
  %37 = or disjoint i64 %26, 2
  %38 = getelementptr inbounds nuw i8, ptr %0, i64 %37
  %39 = load i8, ptr %38, align 1, !tbaa !3
  %40 = zext i8 %39 to i32
  %41 = mul nsw i32 %24, %40
  %42 = add nsw i32 %36, %41
  %43 = getelementptr inbounds nuw [16 x i32], ptr %3, i64 0, i64 %indvars.iv
  store i32 %42, ptr %43, align 4, !tbaa !6
  %indvars.iv.next = add nuw nsw i64 %indvars.iv, 1
  %exitcond.not = icmp eq i64 %indvars.iv.next, 16
  br i1 %exitcond.not, label %.preheader, label %25, !llvm.loop !8

.preheader:                                       ; preds = %25, %.preheader
  %indvars.iv51 = phi i64 [ %indvars.iv.next52, %.preheader ], [ 0, %25 ]
  %44 = shl nuw nsw i64 %indvars.iv51, 2
  %45 = getelementptr inbounds nuw i8, ptr %1, i64 %44
  %46 = load i8, ptr %45, align 1, !tbaa !3
  %47 = zext i8 %46 to i32
  %48 = mul nsw i32 %10, %47
  %49 = or disjoint i64 %44, 1
  %50 = getelementptr inbounds nuw i8, ptr %1, i64 %49
  %51 = load i8, ptr %50, align 1, !tbaa !3
  %52 = zext i8 %51 to i32
  %53 = mul nsw i32 %17, %52
  %54 = add nsw i32 %53, %48
  %55 = or disjoint i64 %44, 2
  %56 = getelementptr inbounds nuw i8, ptr %1, i64 %55
  %57 = load i8, ptr %56, align 1, !tbaa !3
  %58 = zext i8 %57 to i32
  %59 = mul nsw i32 %24, %58
  %60 = add nsw i32 %54, %59
  %61 = getelementptr inbounds nuw [4 x i32], ptr %4, i64 0, i64 %indvars.iv51
  store i32 %60, ptr %61, align 4, !tbaa !6
  %indvars.iv.next52 = add nuw nsw i64 %indvars.iv51, 1
  %exitcond54.not = icmp eq i64 %indvars.iv.next52, 4
  br i1 %exitcond54.not, label %62, label %.preheader, !llvm.loop !10

62:                                               ; preds = %.preheader
  %63 = getelementptr inbounds nuw i8, ptr %4, i64 4
  %64 = load i32, ptr %63, align 4, !tbaa !6
  %65 = getelementptr inbounds nuw i8, ptr %4, i64 12
  %66 = load i32, ptr %65, align 4, !tbaa !6
  %67 = add nsw i32 %66, %64
  %68 = getelementptr inbounds nuw i8, ptr %4, i64 8
  %69 = load i32, ptr %68, align 8, !tbaa !6
  %70 = add nsw i32 %69, %66
  %71 = load i32, ptr %4, align 16, !tbaa !6
  %72 = add nsw i32 %71, %69
  br label %73

73:                                               ; preds = %62, %73
  %indvars.iv55 = phi i64 [ 15, %62 ], [ %indvars.iv.next56, %73 ]
  %.049 = phi i32 [ 0, %62 ], [ %.1, %73 ]
  %74 = getelementptr inbounds nuw [16 x i32], ptr %3, i64 0, i64 %indvars.iv55
  %75 = load i32, ptr %74, align 4, !tbaa !6
  %76 = shl nsw i32 %75, 1
  %77 = shl i32 %.049, 2
  %78 = icmp slt i32 %76, %70
  %79 = icmp slt i32 %76, %67
  %80 = select i1 %79, i32 1, i32 3
  %81 = icmp slt i32 %76, %72
  %82 = select i1 %81, i32 2, i32 0
  %.pn = select i1 %78, i32 %80, i32 %82
  %.1 = or disjoint i32 %.pn, %77
  %indvars.iv.next56 = add nsw i64 %indvars.iv55, -1
  %.not = icmp eq i64 %indvars.iv55, 0
  br i1 %.not, label %83, label %73, !llvm.loop !11

83:                                               ; preds = %73
  call void @llvm.lifetime.end.p0(i64 16, ptr nonnull %4) #10
  call void @llvm.lifetime.end.p0(i64 64, ptr nonnull %3) #10
  ret i32 %.1
}